; Function Attrs: mustprogress uwtable
define void @_ZN12MyToolButton8openMenuEv(ptr noundef nonnull align 8 dereferenceable(48) %0) local_unnamed_addr #2 align 2 {
  %2 = tail call noundef ptr @_ZNK11QToolButton4menuEv(ptr noundef nonnull align 8 dereferenceable(48) %0)
  %3 = getelementptr inbounds i8, ptr %2, i64 40
  %4 = load ptr, ptr %3, align 8
  %5 = getelementptr inbounds i8, ptr %4, i64 8
  %6 = load i32, ptr %5, align 8
  %7 = and i32 %6, 65536
  %.not = icmp eq i32 %7, 0
  br i1 %.not, label %9, label %8

8:                                                ; preds = %1
  tail call void @_ZN11QToolButton8showMenuEv(ptr noundef nonnull align 8 dereferenceable(48) %0)
  br label %9

9:                                                ; preds = %8, %1
  ret void
}